#include <math.h>
#include <stdio.h>
#include <stdlib.h>
#include <string.h>
#include <iostream>
using namespace std;

/*
 * longwords.cpp
 *
 *  Created on: 2013-11-4
 *      Author: dyx
 */
int main()
{
	char words[100];
	cin.getline(words,100);

	int i,j=0;
	for(i=0;words[i]!='\0';i++)
	{
		if(words[i]==' ')
		{
			if(j==1)
				continue;
			if(j==0)
				j++;
		}
		if(words[i]!=' ')
			j=0;
		cout << words[i];
	}


}
